target datalayout = "e-m:e-p270:32:32-p271:32:32-p272:64:64-i64:64-i128:128-f80:128-n8:16:32:64-S128"
target triple = "x86_64-pc-linux-gnu"

%"class.std::__cxx11::basic_string" = type { %"struct.std::__cxx11::basic_string<char>::_Alloc_hider", i64, %union.anon }
%"struct.std::__cxx11::basic_string<char>::_Alloc_hider" = type { ptr }
%union.anon = type { i64, [8 x i8] }
%"class.std::shared_ptr" = type { %"class.std::__shared_ptr" }
%"class.std::__shared_ptr" = type { ptr, %"class.std::__shared_count" }
%"class.std::__shared_count" = type { ptr }
%"class.OpenColorIO_v2_5dev::XmlReaderContainerElt" = type { %"class.OpenColorIO_v2_5dev::XmlReaderElement" }
%"class.OpenColorIO_v2_5dev::XmlReaderElement" = type { ptr, %"class.std::__cxx11::basic_string", i32, %"class.std::__cxx11::basic_string" }
%"class.std::shared_ptr.27" = type { %"class.std::__shared_ptr.28" }
%"class.std::__shared_ptr.28" = type { ptr, %"class.std::__shared_count" }
%"class.OpenColorIO_v2_5dev::CTFReaderOpElt" = type { %"class.OpenColorIO_v2_5dev::XmlReaderContainerElt", %"class.std::shared_ptr", i32, i32 }
%"class.OpenColorIO_v2_5dev::CTFArrayMgt.base" = type <{ ptr, i8 }>
%"class.OpenColorIO_v2_5dev::CTFReaderInvLut3DElt" = type { %"class.OpenColorIO_v2_5dev::CTFReaderOpElt", %"class.OpenColorIO_v2_5dev::CTFArrayMgt.base", %"class.std::shared_ptr.186" }
%"class.std::shared_ptr.186" = type { %"class.std::__shared_ptr.187" }
%"class.std::__shared_ptr.187" = type { ptr, %"class.std::__shared_count" }
%"class.std::_Sp_counted_base" = type { ptr, i32, i32 }

@__libc_single_threaded = external global i8, align 1

; Function Attrs: alwaysinline mustprogress nounwind uwtable
define linkonce_odr void @_ZN9__gnu_cxx12__atomic_addEPVii(ptr noundef %0, i32 noundef %1) #21 comdat {
  %3 = alloca ptr, align 8
  %4 = alloca i32, align 4
  %5 = alloca i32, align 4
  %6 = alloca i32, align 4
  store ptr %0, ptr %3, align 8, !tbaa !447
  store i32 %1, ptr %4, align 4, !tbaa !13
  %7 = load ptr, ptr %3, align 8, !tbaa !447
  %8 = load i32, ptr %4, align 4, !tbaa !13
  store i32 %8, ptr %5, align 4, !tbaa !13
  %9 = load i32, ptr %5, align 4
  %10 = atomicrmw volatile add ptr %7, i32 %9 acq_rel, align 4
  store i32 %10, ptr %6, align 4
  ret void
}

; Function Attrs: alwaysinline mustprogress nounwind uwtable
define linkonce_odr void @_ZN9__gnu_cxx19__atomic_add_singleEPii(ptr noundef %0, i32 noundef %1) #21 comdat {
  %3 = alloca ptr, align 8
  %4 = alloca i32, align 4
  store ptr %0, ptr %3, align 8, !tbaa !447
  store i32 %1, ptr %4, align 4, !tbaa !13
  %5 = load i32, ptr %4, align 4, !tbaa !13
  %6 = load ptr, ptr %3, align 8, !tbaa !447
  %7 = load i32, ptr %6, align 4, !tbaa !13
  %8 = add nsw i32 %7, %5
  store i32 %8, ptr %6, align 4, !tbaa !13
  ret void
}

; Function Attrs: alwaysinline mustprogress nounwind uwtable
define linkonce_odr noundef zeroext i1 @_ZN9__gnu_cxx20__is_single_threadedEv() #21 comdat {
  %1 = load i8, ptr @__libc_single_threaded, align 1, !tbaa !55
  %2 = icmp ne i8 %1, 0
  ret i1 %2
}

; Function Attrs: alwaysinline mustprogress uwtable
define linkonce_odr void @_ZN9__gnu_cxx21__atomic_add_dispatchEPii(ptr noundef %0, i32 noundef %1) #18 comdat {
  %3 = alloca ptr, align 8
  %4 = alloca i32, align 4
  store ptr %0, ptr %3, align 8, !tbaa !447
  store i32 %1, ptr %4, align 4, !tbaa !13
  %5 = call noundef zeroext i1 @_ZN9__gnu_cxx20__is_single_threadedEv() #3
  br i1 %5, label %6, label %9

6:                                                ; preds = %2
  %7 = load ptr, ptr %3, align 8, !tbaa !447
  %8 = load i32, ptr %4, align 4, !tbaa !13
  call void @_ZN9__gnu_cxx19__atomic_add_singleEPii(ptr noundef %7, i32 noundef %8)
  br label %12

9:                                                ; preds = %2
  %10 = load ptr, ptr %3, align 8, !tbaa !447
  %11 = load i32, ptr %4, align 4, !tbaa !13
  call void @_ZN9__gnu_cxx12__atomic_addEPVii(ptr noundef %10, i32 noundef %11)
  br label %12

12:                                               ; preds = %9, %6
  ret void
}

; Function Attrs: noinline noreturn nounwind uwtable
define linkonce_odr hidden void @__clang_call_terminate(ptr noundef %0) #9 comdat {
  %2 = call ptr @__cxa_begin_catch(ptr %0) #3
  call void @_ZSt9terminatev() #27
  unreachable
}

; Function Attrs: mustprogress uwtable
define linkonce_odr hidden void @_ZNSt16_Sp_counted_baseILN9__gnu_cxx12_Lock_policyE2EE15_M_add_ref_copyEv(ptr noundef nonnull align 8 dereferenceable(16) %0) #5 comdat align 2 {
  %2 = alloca ptr, align 8
  store ptr %0, ptr %2, align 8, !tbaa !749
  %3 = load ptr, ptr %2, align 8
  %4 = getelementptr inbounds nuw %"class.std::_Sp_counted_base", ptr %3, i32 0, i32 1
  call void @_ZN9__gnu_cxx21__atomic_add_dispatchEPii(ptr noundef %4, i32 noundef 1)
  ret void
}

; Function Attrs: mustprogress nounwind uwtable
define linkonce_odr hidden void @_ZNSt14__shared_countILN9__gnu_cxx12_Lock_policyE2EEC2ERKS2_(ptr noundef nonnull align 8 dereferenceable(8) %0, ptr noundef nonnull align 8 dereferenceable(8) %1) unnamed_addr #4 comdat align 2 personality ptr @__gxx_personality_v0 {
  %3 = alloca ptr, align 8
  %4 = alloca ptr, align 8
  store ptr %0, ptr %3, align 8, !tbaa !746
  store ptr %1, ptr %4, align 8, !tbaa !746
  %5 = load ptr, ptr %3, align 8
  %6 = getelementptr inbounds nuw %"class.std::__shared_count", ptr %5, i32 0, i32 0
  %7 = load ptr, ptr %4, align 8, !tbaa !746
  %8 = getelementptr inbounds nuw %"class.std::__shared_count", ptr %7, i32 0, i32 0
  %9 = load ptr, ptr %8, align 8, !tbaa !748
  store ptr %9, ptr %6, align 8, !tbaa !748
  %10 = getelementptr inbounds nuw %"class.std::__shared_count", ptr %5, i32 0, i32 0
  %11 = load ptr, ptr %10, align 8, !tbaa !748
  %12 = icmp ne ptr %11, null
  br i1 %12, label %13, label %17

13:                                               ; preds = %2
  %14 = getelementptr inbounds nuw %"class.std::__shared_count", ptr %5, i32 0, i32 0
  %15 = load ptr, ptr %14, align 8, !tbaa !748
  invoke void @_ZNSt16_Sp_counted_baseILN9__gnu_cxx12_Lock_policyE2EE15_M_add_ref_copyEv(ptr noundef nonnull align 8 dereferenceable(16) %15)
          to label %16 unwind label %18

16:                                               ; preds = %13
  br label %17

17:                                               ; preds = %16, %2
  ret void

18:                                               ; preds = %13
  %19 = landingpad { ptr, i32 }
          catch ptr null
  %20 = extractvalue { ptr, i32 } %19, 0
  call void @__clang_call_terminate(ptr %20) #27
  unreachable
}

; Function Attrs: mustprogress nounwind uwtable
define linkonce_odr hidden void @_ZNSt12__shared_ptrIN19OpenColorIO_v2_5dev6OpDataELN9__gnu_cxx12_Lock_policyE2EEC2INS0_11Lut3DOpDataEvEERKS_IT_LS3_2EE(ptr noundef nonnull align 8 dereferenceable(16) %0, ptr noundef nonnull align 8 dereferenceable(16) %1) unnamed_addr #4 comdat align 2 {
  %3 = alloca ptr, align 8
  %4 = alloca ptr, align 8
  store ptr %0, ptr %3, align 8, !tbaa !113
  store ptr %1, ptr %4, align 8, !tbaa !593
  %5 = load ptr, ptr %3, align 8
  %6 = getelementptr inbounds nuw %"class.std::__shared_ptr.28", ptr %5, i32 0, i32 0
  %7 = load ptr, ptr %4, align 8, !tbaa !593
  %8 = getelementptr inbounds nuw %"class.std::__shared_ptr.187", ptr %7, i32 0, i32 0
  %9 = load ptr, ptr %8, align 8, !tbaa !1690
  store ptr %9, ptr %6, align 8, !tbaa !854
  %10 = getelementptr inbounds nuw %"class.std::__shared_ptr.28", ptr %5, i32 0, i32 1
  %11 = load ptr, ptr %4, align 8, !tbaa !593
  %12 = getelementptr inbounds nuw %"class.std::__shared_ptr.187", ptr %11, i32 0, i32 1
  call void @_ZNSt14__shared_countILN9__gnu_cxx12_Lock_policyE2EEC2ERKS2_(ptr noundef nonnull align 8 dereferenceable(8) %10, ptr noundef nonnull align 8 dereferenceable(8) %12) #3
  ret void
}

; Function Attrs: mustprogress nounwind uwtable
define linkonce_odr hidden void @_ZNSt10shared_ptrIN19OpenColorIO_v2_5dev6OpDataEEC2INS0_11Lut3DOpDataEvEERKS_IT_E(ptr noundef nonnull align 8 dereferenceable(16) %0, ptr noundef nonnull align 8 dereferenceable(16) %1) unnamed_addr #4 comdat align 2 {
  %3 = alloca ptr, align 8
  %4 = alloca ptr, align 8
  store ptr %0, ptr %3, align 8, !tbaa !163
  store ptr %1, ptr %4, align 8, !tbaa !603
  %5 = load ptr, ptr %3, align 8
  %6 = load ptr, ptr %4, align 8, !tbaa !603
  call void @_ZNSt12__shared_ptrIN19OpenColorIO_v2_5dev6OpDataELN9__gnu_cxx12_Lock_policyE2EEC2INS0_11Lut3DOpDataEvEERKS_IT_LS3_2EE(ptr noundef nonnull align 8 dereferenceable(16) %5, ptr noundef nonnull align 8 dereferenceable(16) %6) #3
  ret void
}

; Function Attrs: mustprogress nounwind uwtable
define hidden void @_ZNK19OpenColorIO_v2_5dev20CTFReaderInvLut3DElt5getOpEv(ptr dead_on_unwind noalias writable sret(%"class.std::shared_ptr.27") align 8 %0, ptr noundef nonnull align 8 dereferenceable(136) %1) unnamed_addr #4 align 2 {
  %3 = alloca ptr, align 8
  %4 = alloca ptr, align 8
  store ptr %0, ptr %3, align 8
  store ptr %1, ptr %4, align 8, !tbaa !591
  %5 = load ptr, ptr %4, align 8
  %6 = getelementptr inbounds nuw %"class.OpenColorIO_v2_5dev::CTFReaderInvLut3DElt", ptr %5, i32 0, i32 2
  call void @_ZNSt10shared_ptrIN19OpenColorIO_v2_5dev6OpDataEEC2INS0_11Lut3DOpDataEvEERKS_IT_E(ptr noundef nonnull align 8 dereferenceable(16) %0, ptr noundef nonnull align 8 dereferenceable(16) %6) #3
  ret void
}